target datalayout = "e-m:e-p270:32:32-p271:32:32-p272:64:64-i64:64-i128:128-f80:128-n8:16:32:64-S128"
target triple = "x86_64-pc-linux-gnu"

%"struct.ade::(anonymous namespace)::GraphListenerSetter" = type { ptr, ptr }

; Function Attrs: mustprogress nounwind uwtable
define internal void @_ZN3ade12_GLOBAL__N_119GraphListenerSetterD2Ev(ptr noundef nonnull align 8 dereferenceable(16) %0) unnamed_addr #1 align 2 personality ptr @__gxx_personality_v0 {
  %2 = alloca ptr, align 8
  %3 = alloca i8, align 1
  store ptr %0, ptr %2, align 8, !tbaa !59
  %4 = load ptr, ptr %2, align 8
  br label %5

5:                                                ; preds = %1
  call void @llvm.lifetime.start.p0(i64 1, ptr %3) #16
  store i8 0, ptr %3, align 1, !tbaa !41
  call void @llvm.lifetime.end.p0(i64 1, ptr %3) #16
  br label %6

6:                                                ; preds = %5
  br label %7

7:                                                ; preds = %6
  %8 = getelementptr inbounds nuw %"struct.ade::(anonymous namespace)::GraphListenerSetter", ptr %4, i32 0, i32 0
  %9 = load ptr, ptr %8, align 8, !tbaa !65
  invoke void @_ZN3ade5Graph11setListenerEPNS_14IGraphListenerE(ptr noundef nonnull align 8 dereferenceable(168) %9, ptr noundef null)
          to label %10 unwind label %11

10:                                               ; preds = %7
  ret void

11:                                               ; preds = %7
  %12 = landingpad { ptr, i32 }
          catch ptr null
  %13 = extractvalue { ptr, i32 } %12, 0
  call void @__clang_call_terminate(ptr %13) #17
  unreachable
}