; Function Attrs: mustprogress nounwind uwtable
define internal fastcc void @_ZN3ade12_GLOBAL__N_119GraphListenerSetterD2Ev(ptr nonnull %.0.val) unnamed_addr #2 align 2 personality ptr @__gxx_personality_v0 {
  invoke void @_ZN3ade5Graph11setListenerEPNS_14IGraphListenerE(ptr noundef nonnull align 8 dereferenceable(168) %.0.val, ptr noundef null)
          to label %1 unwind label %2

1:                                                ; preds = %0
  ret void

2:                                                ; preds = %0
  %3 = landingpad { ptr, i32 }
          catch ptr null
  %4 = extractvalue { ptr, i32 } %3, 0
  tail call void @__clang_call_terminate(ptr %4) #27
  unreachable
}